
/home/canxin/XiangShan/software/skiptrap/skiptrap.elf:     file format elf64-littleriscv


Disassembly of section .text:

0000000080000000 <_start>:
    80000000:	00000297          	auipc	t0,0x0
    80000004:	06828293          	addi	t0,t0,104 # 80000068 <trap_handler>
    80000008:	30529073          	csrw	mtvec,t0
    8000000c:	300022f3          	csrr	t0,mstatus
    80000010:	630d                	lui	t1,0x3
    80000012:	0062e2b3          	or	t0,t0,t1
    80000016:	30029073          	csrw	mstatus,t0
    8000001a:	00301073          	fscsr	zero
    8000001e:	a009                	j	80000020 <user_code>

0000000080000020 <user_code>:
    80000020:	0000                	unimp
    80000022:	02a00413          	li	s0,42
    80000026:	00000317          	auipc	t1,0x0
    8000002a:	09a30313          	addi	t1,t1,154 # 800000c0 <skiptrap_store_buf>
    8000002e:	00833023          	sd	s0,0(t1)
    80000032:	3fc003b7          	lui	t2,0x3fc00
    80000036:	f0038053          	fmv.w.x	ft0,t2
    8000003a:	000070d3          	fadd.s	ft1,ft0,ft0
    8000003e:	40000e37          	lui	t3,0x40000
    80000042:	f00e0f53          	fmv.w.x	ft10,t3
    80000046:	01ef7fd3          	fadd.s	ft11,ft10,ft10

000000008000004a <exit>:
    8000004a:	4281                	li	t0,0
    8000004c:	4281                	li	t0,0
    8000004e:	4281                	li	t0,0
    80000050:	4281                	li	t0,0
    80000052:	4281                	li	t0,0
    80000054:	4281                	li	t0,0
    80000056:	4281                	li	t0,0
    80000058:	4281                	li	t0,0
    8000005a:	4281                	li	t0,0
    8000005c:	4281                	li	t0,0
    8000005e:	4281                	li	t0,0
    80000060:	0002806b          	.insn	4, 0x0002806b
    80000064:	a001                	j	80000064 <exit+0x1a>
    80000066:	0001                	nop

0000000080000068 <trap_handler>:
    80000068:	341022f3          	csrr	t0,mepc
    8000006c:	34202373          	csrr	t1,mcause
    80000070:	34302ef3          	csrr	t4,mtval
    80000074:	00131f13          	slli	t5,t1,0x1
    80000078:	001f5313          	srli	t1,t5,0x1
    8000007c:	4389                	li	t2,2
    8000007e:	4e09                	li	t3,2
    80000080:	01c30b63          	beq	t1,t3,80000096 <use_mtval>
    80000084:	4e05                	li	t3,1
    80000086:	01c30563          	beq	t1,t3,80000090 <fetch_inst>
    8000008a:	4e31                	li	t3,12
    8000008c:	01c30263          	beq	t1,t3,80000090 <fetch_inst>

0000000080000090 <fetch_inst>:
    80000090:	0002de83          	lhu	t4,0(t0)
    80000094:	a011                	j	80000098 <decode_length>

0000000080000096 <use_mtval>:
    80000096:	a009                	j	80000098 <decode_length>

0000000080000098 <decode_length>:
    80000098:	003efe93          	andi	t4,t4,3
    8000009c:	4e0d                	li	t3,3
    8000009e:	01ce9463          	bne	t4,t3,800000a6 <compressed_len>
    800000a2:	4391                	li	t2,4
    800000a4:	a011                	j	800000a8 <update_mepc>

00000000800000a6 <compressed_len>:
    800000a6:	4389                	li	t2,2

00000000800000a8 <update_mepc>:
    800000a8:	929e                	add	t0,t0,t2
    800000aa:	34129073          	csrw	mepc,t0
    800000ae:	34201073          	csrw	mcause,zero
    800000b2:	34301073          	csrw	mtval,zero
    800000b6:	30200073          	mret
    800000ba:	0001                	nop
